Certificate:
    Data:
        Version: 3 (0x2)
        Serial Number:
            12:70:00:00:60:01
        Signature Algorithm: sha256WithRSAEncryption
        Issuer: C=VN, ST=Thanh Khe, L=Da Nang, O=SFR Software, OU=Server Certificate Provider, CN=Local CA/emailAddress=ca@localhost
        Validity
            Not Before: Jul 30 08:03:43 2019 GMT
            Not After : Jul 29 08:03:43 2021 GMT
        Subject: C=VN, ST=Thanh Khe, L=Da Nang, O=SFR Software, CN=192.168.0.107
        Subject Public Key Info:
            Public Key Algorithm: rsaEncryption
                RSA Public-Key: (4096 bit)
                Modulus:
                    00:ca:83:76:b2:41:10:c6:9b:14:40:35:3d:a9:7f:
                    19:21:3f:18:f3:ea:7d:03:c6:51:2d:12:c4:ca:7c:
                    c7:7e:ac:3e:d5:55:9a:4e:a8:a9:9c:9e:e1:63:43:
                    e3:8b:ef:37:79:d5:54:9d:72:39:49:84:35:17:ff:
                    42:a1:b7:e1:60:43:ae:41:f2:38:4c:c3:c1:a1:d5:
                    7b:cf:27:a7:da:62:51:bb:92:ab:93:c3:3b:d8:f5:
                    c2:59:3d:26:c2:98:07:4d:d7:5c:61:b2:86:1e:c7:
                    1b:68:c5:b4:0a:30:d1:72:0a:01:62:49:3f:22:17:
                    c3:0e:8f:b0:2b:18:de:67:1a:70:e3:a9:27:93:4d:
                    96:7b:18:e1:c2:8b:98:f1:92:87:99:70:ba:09:dd:
                    32:14:e2:54:42:34:f5:6d:48:e5:72:8d:0a:45:b2:
                    ef:a0:11:f0:5f:15:c5:e0:9b:8b:0b:11:c8:0f:a1:
                    60:33:d6:2e:7c:7f:49:9a:2b:77:43:e0:dd:58:b8:
                    16:9f:80:3a:5f:44:bb:38:d0:2a:e8:48:26:9e:45:
                    37:a5:57:1c:02:ae:51:24:c0:d4:36:51:d2:70:57:
                    06:d0:8e:65:ef:e4:98:3a:d8:37:79:ae:63:d8:78:
                    6a:9f:c3:ed:9a:d3:1a:10:8e:13:50:8f:ba:be:e2:
                    60:d4:e4:9a:da:77:33:1b:21:56:79:50:d1:0c:62:
                    21:50:af:34:18:fb:2e:f0:88:37:39:a9:35:28:39:
                    0b:0a:a2:09:40:ff:0e:3e:73:c1:57:9b:f0:7c:c4:
                    d3:70:3c:8f:01:f7:f2:89:89:a5:42:fe:ae:e5:44:
                    67:75:b0:7a:c2:81:f3:da:9c:0e:ea:ea:ec:13:1c:
                    df:26:ec:5d:4b:51:f3:25:9b:f6:ab:cb:cc:3b:26:
                    3b:8e:ed:22:90:f9:d0:b3:6e:3d:b3:d6:37:80:26:
                    35:f9:0f:a8:0a:4b:72:ee:58:82:5c:e0:94:f1:d1:
                    c9:2a:d1:de:5f:90:73:48:07:c5:cf:19:29:2a:63:
                    53:24:e8:83:d9:26:7f:33:5e:bc:00:90:98:20:7d:
                    e3:82:ba:d9:f1:32:3c:c6:33:ea:bf:5b:9e:1b:8b:
                    96:7b:f0:c1:70:8b:ff:76:7f:31:6e:6e:6b:18:16:
                    5a:7c:dc:a1:01:c0:af:93:af:c8:a9:90:fd:d8:3f:
                    bc:32:19:29:90:47:93:1c:59:1f:a1:18:80:44:39:
                    cf:4c:7c:a8:f5:22:55:5a:30:13:98:1a:f5:66:92:
                    05:6b:1a:69:96:65:7d:28:7d:6b:03:3e:6f:6c:55:
                    fe:02:7d:75:49:2d:b6:54:4e:71:ad:aa:6b:aa:48:
                    8d:30:01
                Exponent: 65537 (0x10001)
        X509v3 extensions:
            X509v3 Subject Key Identifier: 
                E3:1C:87:D5:1B:A0:48:9E:F3:6A:4F:62:37:9D:CB:BC:81:BF:32:A0
            X509v3 Authority Key Identifier: 
                keyid:1A:8F:9C:C4:3C:88:63:CE:85:A3:9C:57:8C:2B:16:4C:3C:55:10:43

            X509v3 Basic Constraints: 
                CA:FALSE
            X509v3 Key Usage: 
                Digital Signature, Key Encipherment
            X509v3 Subject Alternative Name: 
                DNS:192.168.0.107, IP Address:127.0.6.1, IP Address:0:0:0:0:0:0:0:1
            Netscape Comment: 
                OpenSSL Generated Certificate
    Signature Algorithm: sha256WithRSAEncryption
         2a:9c:57:32:16:b5:94:73:ea:32:05:f9:75:7c:df:a0:7c:42:
         30:5f:3c:24:8d:ee:98:d9:05:bb:70:5b:59:be:6a:af:79:6d:
         28:8f:9d:55:14:8e:fb:ee:98:f6:2b:61:8e:89:c3:45:f0:8f:
         b9:b6:55:7b:0b:76:ed:05:67:51:a7:09:15:ae:c7:05:ce:00:
         c8:f2:e4:78:9d:0e:7b:52:bd:d9:92:82:1d:7f:da:0b:be:15:
         38:13:7b:7c:6c:54:22:ee:ec:84:e0:cb:54:cd:f0:46:95:e7:
         b5:ab:8b:3b:8e:e2:ef:23:01:dc:f9:59:6a:1f:45:d5:70:aa:
         5f:8b:a1:e0:66:ca:64:96:2c:1c:64:e5:de:b0:c9:81:d4:f2:
         a2:2e:cd:4d:af:4e:b6:3b:8d:3b:26:8c:4e:18:d0:e9:29:8c:
         c6:a9:d2:89:b6:0d:e9:b0:5f:49:57:24:43:0e:a6:c5:bb:29:
         e6:ec:73:90:05:1b:1c:1b:ac:11:fd:89:a8:62:50:53:4f:62:
         ff:44:66:94:15:0d:c3:4a:33:4b:34:c3:a8:15:73:09:b3:f2:
         08:79:33:63:77:1a:be:ff:03:91:02:c2:5d:be:ac:fd:79:25:
         b0:3d:05:3a:06:b3:56:c4:56:35:ae:55:69:81:90:28:e6:b5:
         a0:f0:64:98:0e:80:51:02:26:12:62:5a:9b:86:19:6c:5f:3b:
         d6:c8:bf:7b:33:e9:b1:48:42:88:5f:b2:7e:97:0d:6c:97:3c:
         2c:fa:61:2d:40:18:b9:f7:ef:bd:cc:5f:a3:f2:29:35:00:44:
         a7:26:cc:95:3d:77:aa:92:50:74:3c:18:1f:1c:b4:b4:0c:00:
         e1:5b:b1:cd:19:f6:eb:29:4b:38:af:c0:ef:47:5c:41:cb:6e:
         9c:6f:9a:8f:0c:81:53:cf:5d:6e:cf:1c:e2:a2:a0:f5:39:94:
         ba:87:17:b5:ce:65:1c:19:4c:97:99:e7:04:70:13:98:32:6d:
         fb:01:85:de:d1:cd:f2:74:ea:dd:c6:c6:07:82:c6:a4:e0:53:
         7d:70:d8:4c:77:02:cf:33:7f:af:8b:ea:ef:1b:77:cb:d7:0d:
         1b:68:05:2e:c0:64:6a:b3:01:e7:21:4a:55:72:63:64:e1:f8:
         17:c2:fb:8a:f9:a0:95:25:14:88:65:70:7a:8a:6a:96:f0:44:
         7c:79:c1:6c:4f:77:16:cf:cc:8c:4f:c5:72:e7:3f:ce:e9:26:
         5f:6b:f4:5b:dd:96:f7:c9:a4:70:eb:aa:98:6d:d0:5d:37:2d:
         27:0e:2e:a5:3e:1a:07:05:ec:19:f1:ed:4d:d6:43:1d:e8:90:
         2b:46:b2:ed:b2:c0:75:79
-----BEGIN CERTIFICATE-----
MIIGPzCCBCegAwIBAgIGEnAAAGABMA0GCSqGSIb3DQEBCwUAMIGgMQswCQYDVQQG
EwJWTjESMBAGA1UECAwJVGhhbmggS2hlMRAwDgYDVQQHDAdEYSBOYW5nMRUwEwYD
VQQKDAxTRlIgU29mdHdhcmUxJDAiBgNVBAsMG1NlcnZlciBDZXJ0aWZpY2F0ZSBQ
cm92aWRlcjERMA8GA1UEAwwITG9jYWwgQ0ExGzAZBgkqhkiG9w0BCQEWDGNhQGxv
Y2FsaG9zdDAeFw0xOTA3MzAwODAzNDNaFw0yMTA3MjkwODAzNDNaMGIxCzAJBgNV
BAYTAlZOMRIwEAYDVQQIDAlUaGFuaCBLaGUxEDAOBgNVBAcMB0RhIE5hbmcxFTAT
BgNVBAoMDFNGUiBTb2Z0d2FyZTEWMBQGA1UEAwwNMTkyLjE2OC4wLjEwNzCCAiIw
DQYJKoZIhvcNAQEBBQADggIPADCCAgoCggIBAMqDdrJBEMabFEA1Pal/GSE/GPPq
fQPGUS0SxMp8x36sPtVVmk6oqZye4WND44vvN3nVVJ1yOUmENRf/QqG34WBDrkHy
OEzDwaHVe88np9piUbuSq5PDO9j1wlk9JsKYB03XXGGyhh7HG2jFtAow0XIKAWJJ
PyIXww6PsCsY3mcacOOpJ5NNlnsY4cKLmPGSh5lwugndMhTiVEI09W1I5XKNCkWy
76AR8F8VxeCbiwsRyA+hYDPWLnx/SZord0Pg3Vi4Fp+AOl9EuzjQKuhIJp5FN6VX
HAKuUSTA1DZR0nBXBtCOZe/kmDrYN3muY9h4ap/D7ZrTGhCOE1CPur7iYNTkmtp3
MxshVnlQ0QxiIVCvNBj7LvCINzmpNSg5CwqiCUD/Dj5zwVeb8HzE03A8jwH38omJ
pUL+ruVEZ3WwesKB89qcDurq7BMc3ybsXUtR8yWb9qvLzDsmO47tIpD50LNuPbPW
N4AmNfkPqApLcu5YglzglPHRySrR3l+Qc0gHxc8ZKSpjUyTog9kmfzNevACQmCB9
44K62fEyPMYz6r9bnhuLlnvwwXCL/3Z/MW5uaxgWWnzcoQHAr5OvyKmQ/dg/vDIZ
KZBHkxxZH6EYgEQ5z0x8qPUiVVowE5ga9WaSBWsaaZZlfSh9awM+b2xV/gJ9dUkt
tlROca2qa6pIjTABAgMBAAGjgbswgbgwHQYDVR0OBBYEFOMch9UboEie82pPYjed
y7yBvzKgMB8GA1UdIwQYMBaAFBqPnMQ8iGPOhaOcV4wrFkw8VRBDMAkGA1UdEwQC
MAAwCwYDVR0PBAQDAgWgMDAGA1UdEQQpMCeCDTE5Mi4xNjguMC4xMDeHBH8ABgGH
EAAAAAAAAAAAAAAAAAAAAAEwLAYJYIZIAYb4QgENBB8WHU9wZW5TU0wgR2VuZXJh
dGVkIENlcnRpZmljYXRlMA0GCSqGSIb3DQEBCwUAA4ICAQAqnFcyFrWUc+oyBfl1
fN+gfEIwXzwkje6Y2QW7cFtZvmqveW0oj51VFI777pj2K2GOicNF8I+5tlV7C3bt
BWdRpwkVrscFzgDI8uR4nQ57Ur3ZkoIdf9oLvhU4E3t8bFQi7uyE4MtUzfBGlee1
q4s7juLvIwHc+VlqH0XVcKpfi6HgZspkliwcZOXesMmB1PKiLs1Nr062O407JoxO
GNDpKYzGqdKJtg3psF9JVyRDDqbFuynm7HOQBRscG6wR/YmoYlBTT2L/RGaUFQ3D
SjNLNMOoFXMJs/IIeTNjdxq+/wORAsJdvqz9eSWwPQU6BrNWxFY1rlVpgZAo5rWg
8GSYDoBRAiYSYlqbhhlsXzvWyL97M+mxSEKIX7J+lw1slzws+mEtQBi59++9zF+j
8ik1AESnJsyVPXeqklB0PBgfHLS0DADhW7HNGfbrKUs4r8DvR1xBy26cb5qPDIFT
z11uzxzioqD1OZS6hxe1zmUcGUyXmecEcBOYMm37AYXe0c3ydOrdxsYHgsak4FN9
cNhMdwLPM3+vi+rvG3fL1w0baAUuwGRqswHnIUpVcmNk4fgXwvuK+aCVJRSIZXB6
imqW8ER8ecFsT3cWz8yMT8Vy5z/O6SZfa/Rb3Zb3yaRw66qYbdBdNy0nDi6lPhoH
BewZ8e1N1kMd6JArRrLtssB1eQ==
-----END CERTIFICATE-----
